target datalayout = "e-m:e-p270:32:32-p271:32:32-p272:64:64-i64:64-i128:128-f80:128-n8:16:32:64-S128"
target triple = "x86_64-pc-linux-gnu"

%struct._address = type { i32, i32, ptr, ptr }
%struct._endpoint_item_t = type { ptr, %struct._address, i32, i32, i64, i64, i64, i64, i64, i64, i64, i64, i8, i8 }

@.str.4 = private unnamed_addr constant [3 x i8] c"%d\00", align 1

; Function Attrs: null_pointer_is_valid sspstrong uwtable
define ptr @get_endpoint_port(ptr noundef %0, ptr noundef %1, i1 noundef zeroext %2) #1 {
  %4 = alloca ptr, align 8
  %5 = alloca ptr, align 8
  %6 = alloca ptr, align 8
  %7 = alloca i8, align 1
  %8 = alloca i32, align 4
  %9 = alloca i32, align 4
  store ptr %0, ptr %5, align 8
  store ptr %1, ptr %6, align 8
  %10 = zext i1 %2 to i8
  store i8 %10, ptr %7, align 1
  call void @llvm.lifetime.start.p0(i64 4, ptr %8) #16
  %11 = load ptr, ptr %6, align 8
  %12 = getelementptr inbounds nuw %struct._endpoint_item_t, ptr %11, i32 0, i32 2
  %13 = load i32, ptr %12, align 8
  store i32 %13, ptr %8, align 4
  %14 = load i8, ptr %7, align 1, !range !6, !noundef !7
  %15 = trunc i8 %14 to i1
  br i1 %15, label %17, label %16

16:                                               ; preds = %3
  store i32 0, ptr %8, align 4
  br label %17

17:                                               ; preds = %16, %3
  %18 = load i32, ptr %8, align 4
  switch i32 %18, label %43 [
    i32 2, label %19
    i32 3, label %25
    i32 1, label %31
    i32 4, label %37
  ]

19:                                               ; preds = %17
  %20 = load ptr, ptr %5, align 8
  %21 = load ptr, ptr %6, align 8
  %22 = getelementptr inbounds nuw %struct._endpoint_item_t, ptr %21, i32 0, i32 3
  %23 = load i32, ptr %22, align 4
  %24 = call ptr @tcp_port_to_display(ptr noundef %20, i32 noundef %23)
  store ptr %24, ptr %4, align 8
  store i32 1, ptr %9, align 4
  br label %49

25:                                               ; preds = %17
  %26 = load ptr, ptr %5, align 8
  %27 = load ptr, ptr %6, align 8
  %28 = getelementptr inbounds nuw %struct._endpoint_item_t, ptr %27, i32 0, i32 3
  %29 = load i32, ptr %28, align 4
  %30 = call ptr @udp_port_to_display(ptr noundef %26, i32 noundef %29)
  store ptr %30, ptr %4, align 8
  store i32 1, ptr %9, align 4
  br label %49

31:                                               ; preds = %17
  %32 = load ptr, ptr %5, align 8
  %33 = load ptr, ptr %6, align 8
  %34 = getelementptr inbounds nuw %struct._endpoint_item_t, ptr %33, i32 0, i32 3
  %35 = load i32, ptr %34, align 4
  %36 = call ptr @sctp_port_to_display(ptr noundef %32, i32 noundef %35)
  store ptr %36, ptr %4, align 8
  store i32 1, ptr %9, align 4
  br label %49

37:                                               ; preds = %17
  %38 = load ptr, ptr %5, align 8
  %39 = load ptr, ptr %6, align 8
  %40 = getelementptr inbounds nuw %struct._endpoint_item_t, ptr %39, i32 0, i32 3
  %41 = load i32, ptr %40, align 4
  %42 = call ptr @dccp_port_to_display(ptr noundef %38, i32 noundef %41)
  store ptr %42, ptr %4, align 8
  store i32 1, ptr %9, align 4
  br label %49

43:                                               ; preds = %17
  %44 = load ptr, ptr %5, align 8
  %45 = load ptr, ptr %6, align 8
  %46 = getelementptr inbounds nuw %struct._endpoint_item_t, ptr %45, i32 0, i32 3
  %47 = load i32, ptr %46, align 4
  %48 = call noalias ptr (ptr, ptr, ...) @wmem_strdup_printf(ptr noundef %44, ptr noundef @.str.4, i32 noundef %47)
  store ptr %48, ptr %4, align 8
  store i32 1, ptr %9, align 4
  br label %49

49:                                               ; preds = %43, %37, %31, %25, %19
  call void @llvm.lifetime.end.p0(i64 4, ptr %8) #16
  %50 = load ptr, ptr %4, align 8
  ret ptr %50
}