; Function Attrs: null_pointer_is_valid sspstrong uwtable
define ptr @get_endpoint_port(ptr noundef %0, ptr noundef readonly captures(none) %1, i1 noundef zeroext %2) local_unnamed_addr #1 {
  %4 = getelementptr inbounds nuw i8, ptr %1, i64 32
  %5 = load i32, ptr %4, align 8
  %spec.store.select = select i1 %2, i32 %5, i32 0
  %6 = getelementptr inbounds nuw i8, ptr %1, i64 36
  %7 = load i32, ptr %6, align 4
  switch i32 %spec.store.select, label %16 [
    i32 2, label %8
    i32 3, label %10
    i32 1, label %12
    i32 4, label %14
  ]

8:                                                ; preds = %3
  %9 = tail call ptr @tcp_port_to_display(ptr noundef %0, i32 noundef %7)
  br label %18

10:                                               ; preds = %3
  %11 = tail call ptr @udp_port_to_display(ptr noundef %0, i32 noundef %7)
  br label %18

12:                                               ; preds = %3
  %13 = tail call ptr @sctp_port_to_display(ptr noundef %0, i32 noundef %7)
  br label %18

14:                                               ; preds = %3
  %15 = tail call ptr @dccp_port_to_display(ptr noundef %0, i32 noundef %7)
  br label %18

16:                                               ; preds = %3
  %17 = tail call noalias ptr (ptr, ptr, ...) @wmem_strdup_printf(ptr noundef %0, ptr noundef nonnull @.str.4, i32 noundef %7)
  br label %18

18:                                               ; preds = %16, %14, %12, %10, %8
  %.0 = phi ptr [ %17, %16 ], [ %15, %14 ], [ %13, %12 ], [ %11, %10 ], [ %9, %8 ]
  ret ptr %.0
}